; Function Attrs: mustprogress nofree norecurse nounwind willreturn memory(readwrite, inaccessiblemem: none) uwtable
define noundef ptr @_ZN7rocksdb19ThreadStatusUpdater22GetColumnFamilyInfoKeyEv(ptr noundef nonnull readnone align 8 captures(none) dereferenceable(216) %0) local_unnamed_addr #8 align 2 {
  %2 = tail call align 8 ptr @llvm.threadlocal.address.p0(ptr align 8 @_ZN7rocksdb19ThreadStatusUpdater19thread_status_data_E)
  %3 = load ptr, ptr %2, align 8, !tbaa !14
  %4 = icmp eq ptr %3, null
  br i1 %4, label %_ZN7rocksdb19ThreadStatusUpdater20GetLocalThreadStatusEv.exit.thread, label %5

5:                                                ; preds = %1
  %6 = load atomic i8, ptr %3 monotonic, align 1
  %7 = trunc i8 %6 to i1
  br i1 %7, label %_ZN7rocksdb19ThreadStatusUpdater20GetLocalThreadStatusEv.exit, label %_ZN7rocksdb19ThreadStatusUpdater20GetLocalThreadStatusEv.exit.thread

_ZN7rocksdb19ThreadStatusUpdater20GetLocalThreadStatusEv.exit: ; preds = %5
  %8 = getelementptr inbounds nuw i8, ptr %3, i64 24
  %9 = load atomic i64, ptr %8 monotonic, align 8
  %.0.i.i = inttoptr i64 %9 to ptr
  br label %_ZN7rocksdb19ThreadStatusUpdater20GetLocalThreadStatusEv.exit.thread

_ZN7rocksdb19ThreadStatusUpdater20GetLocalThreadStatusEv.exit.thread: ; preds = %5, %1, %_ZN7rocksdb19ThreadStatusUpdater20GetLocalThreadStatusEv.exit
  %.0 = phi ptr [ %.0.i.i, %_ZN7rocksdb19ThreadStatusUpdater20GetLocalThreadStatusEv.exit ], [ null, %1 ], [ null, %5 ]
  ret ptr %.0
}